target datalayout = "e-m:e-p270:32:32-p271:32:32-p272:64:64-i64:64-i128:128-f80:128-n8:16:32:64-S128"
target triple = "x86_64-pc-linux-gnu"

%struct.git_hash_algo = type { ptr, i32, i64, i64, i64, ptr, ptr, ptr, ptr, ptr, ptr, ptr, ptr, ptr }

@.str.9 = private unnamed_addr constant [21 x i8] c"invalid hash version\00", align 1
@hash_algos = external constant [3 x %struct.git_hash_algo], align 16

; Function Attrs: inlinehint nounwind uwtable
define internal i32 @hash_algo_by_ptr(ptr noundef %0) #4 {
  %2 = alloca i32, align 4
  %3 = alloca ptr, align 8
  %4 = alloca i64, align 8
  %5 = alloca ptr, align 8
  %6 = alloca i32, align 4
  store ptr %0, ptr %3, align 8, !tbaa !72
  call void @llvm.lifetime.start.p0(i64 8, ptr %4) #7
  store i64 0, ptr %4, align 8, !tbaa !19
  br label %7

7:                                                ; preds = %23, %1
  %8 = load i64, ptr %4, align 8, !tbaa !19
  %9 = icmp ult i64 %8, 3
  br i1 %9, label %10, label %26

10:                                               ; preds = %7
  call void @llvm.lifetime.start.p0(i64 8, ptr %5) #7
  %11 = load i64, ptr %4, align 8, !tbaa !19
  %12 = getelementptr inbounds nuw [3 x %struct.git_hash_algo], ptr @hash_algos, i64 0, i64 %11
  store ptr %12, ptr %5, align 8, !tbaa !72
  %13 = load ptr, ptr %3, align 8, !tbaa !72
  %14 = load ptr, ptr %5, align 8, !tbaa !72
  %15 = icmp eq ptr %13, %14
  br i1 %15, label %16, label %19

16:                                               ; preds = %10
  %17 = load i64, ptr %4, align 8, !tbaa !19
  %18 = trunc i64 %17 to i32
  store i32 %18, ptr %2, align 4
  store i32 1, ptr %6, align 4
  br label %20

19:                                               ; preds = %10
  store i32 0, ptr %6, align 4
  br label %20

20:                                               ; preds = %19, %16
  call void @llvm.lifetime.end.p0(i64 8, ptr %5) #7
  %21 = load i32, ptr %6, align 4
  switch i32 %21, label %27 [
    i32 0, label %22
  ]

22:                                               ; preds = %20
  br label %23

23:                                               ; preds = %22
  %24 = load i64, ptr %4, align 8, !tbaa !19
  %25 = add i64 %24, 1
  store i64 %25, ptr %4, align 8, !tbaa !19
  br label %7, !llvm.loop !73

26:                                               ; preds = %7
  store i32 0, ptr %2, align 4
  store i32 1, ptr %6, align 4
  br label %27

27:                                               ; preds = %26, %20
  call void @llvm.lifetime.end.p0(i64 8, ptr %4) #7
  %28 = load i32, ptr %2, align 4
  ret i32 %28
}

; Function Attrs: nounwind uwtable
define dso_local zeroext i8 @oid_version(ptr noundef %0) #0 {
  %2 = alloca i8, align 1
  %3 = alloca ptr, align 8
  store ptr %0, ptr %3, align 8, !tbaa !72
  %4 = load ptr, ptr %3, align 8, !tbaa !72
  %5 = call i32 @hash_algo_by_ptr(ptr noundef %4)
  switch i32 %5, label %8 [
    i32 1, label %6
    i32 2, label %7
  ]

6:                                                ; preds = %1
  store i8 1, ptr %2, align 1
  br label %10

7:                                                ; preds = %1
  store i8 2, ptr %2, align 1
  br label %10

8:                                                ; preds = %1
  %9 = call ptr @_(ptr noundef @.str.9)
  call void (ptr, ...) @die(ptr noundef %9) #8
  unreachable

10:                                               ; preds = %7, %6
  %11 = load i8, ptr %2, align 1
  ret i8 %11
}