; Function Attrs: nounwind uwtable
define dso_local zeroext range(i8 1, 3) i8 @oid_version(ptr noundef readnone %0) local_unnamed_addr #0 {
  br label %2

2:                                                ; preds = %4, %1
  %.0811.i = phi i64 [ 0, %1 ], [ %5, %4 ]
  %3 = getelementptr inbounds nuw [3 x %struct.git_hash_algo], ptr @hash_algos, i64 0, i64 %.0811.i
  %.not.i = icmp eq ptr %0, %3
  br i1 %.not.i, label %hash_algo_by_ptr.exit, label %4

4:                                                ; preds = %2
  %5 = add nuw nsw i64 %.0811.i, 1
  %exitcond.not.i = icmp eq i64 %5, 3
  br i1 %exitcond.not.i, label %hash_algo_by_ptr.exit.thread, label %2, !llvm.loop !61

hash_algo_by_ptr.exit:                            ; preds = %2
  %6 = trunc nuw nsw i64 %.0811.i to i32
  switch i32 %6, label %hash_algo_by_ptr.exit.thread [
    i32 1, label %9
    i32 2, label %7
  ]

7:                                                ; preds = %hash_algo_by_ptr.exit
  br label %9

hash_algo_by_ptr.exit.thread:                     ; preds = %4, %hash_algo_by_ptr.exit
  %8 = tail call fastcc ptr @_(ptr noundef nonnull @.str.9)
  tail call void (ptr, ...) @die(ptr noundef %8) #12
  unreachable

9:                                                ; preds = %hash_algo_by_ptr.exit, %7
  %.0 = phi i8 [ 2, %7 ], [ 1, %hash_algo_by_ptr.exit ]
  ret i8 %.0
}